target datalayout = "e-m:e-p270:32:32-p271:32:32-p272:64:64-i64:64-i128:128-f80:128-n8:16:32:64-S128"
target triple = "x86_64-pc-linux-gnu"

; Function Attrs: nounwind uwtable
define dso_local i64 @xpread(i32 noundef %0, ptr noundef %1, i64 noundef %2, i64 noundef %3) #0 {
  %5 = alloca i32, align 4
  %6 = alloca ptr, align 8
  %7 = alloca i64, align 8
  %8 = alloca i64, align 8
  %9 = alloca i64, align 8
  store i32 %0, ptr %5, align 4, !tbaa !11
  store ptr %1, ptr %6, align 8, !tbaa !13
  store i64 %2, ptr %7, align 8, !tbaa !9
  store i64 %3, ptr %8, align 8, !tbaa !9
  call void @llvm.lifetime.start.p0(i64 8, ptr %9) #13
  %10 = load i64, ptr %7, align 8, !tbaa !9
  %11 = icmp ugt i64 %10, 8388608
  br i1 %11, label %12, label %13

12:                                               ; preds = %4
  store i64 8388608, ptr %7, align 8, !tbaa !9
  br label %13

13:                                               ; preds = %12, %4
  br label %14

14:                                               ; preds = %31, %13
  br label %15

15:                                               ; preds = %14
  %16 = load i32, ptr %5, align 4, !tbaa !11
  %17 = load ptr, ptr %6, align 8, !tbaa !13
  %18 = load i64, ptr %7, align 8, !tbaa !9
  %19 = load i64, ptr %8, align 8, !tbaa !9
  %20 = call i64 @pread64(i32 noundef %16, ptr noundef %17, i64 noundef %18, i64 noundef %19)
  store i64 %20, ptr %9, align 8, !tbaa !9
  %21 = load i64, ptr %9, align 8, !tbaa !9
  %22 = icmp slt i64 %21, 0
  br i1 %22, label %23, label %32

23:                                               ; preds = %15
  %24 = call ptr @__errno_location() #19
  %25 = load i32, ptr %24, align 4, !tbaa !11
  %26 = icmp eq i32 %25, 11
  br i1 %26, label %31, label %27

27:                                               ; preds = %23
  %28 = call ptr @__errno_location() #19
  %29 = load i32, ptr %28, align 4, !tbaa !11
  %30 = icmp eq i32 %29, 4
  br i1 %30, label %31, label %32

31:                                               ; preds = %27, %23
  br label %14

32:                                               ; preds = %27, %15
  %33 = load i64, ptr %9, align 8, !tbaa !9
  call void @llvm.lifetime.end.p0(i64 8, ptr %9) #13
  ret i64 %33
}