; Function Attrs: nounwind uwtable
define dso_local i64 @xpread(i32 noundef %0, ptr noundef %1, i64 noundef %2, i64 noundef %3) local_unnamed_addr #0 {
  %spec.store.select = tail call i64 @llvm.umin.i64(i64 %2, i64 8388608)
  %5 = tail call i64 @pread64(i32 noundef %0, ptr noundef %1, i64 noundef %spec.store.select, i64 noundef %3) #20
  %6 = icmp slt i64 %5, 0
  br i1 %6, label %.lr.ph, label %._crit_edge

.lr.ph:                                           ; preds = %4
  %7 = tail call ptr @__errno_location() #26
  br label %8

8:                                                ; preds = %.lr.ph, %11
  %9 = phi i64 [ %5, %.lr.ph ], [ %12, %11 ]
  %10 = load i32, ptr %7, align 4, !tbaa !9
  switch i32 %10, label %._crit_edge [
    i32 11, label %11
    i32 4, label %11
  ]

11:                                               ; preds = %8, %8
  %12 = tail call i64 @pread64(i32 noundef %0, ptr noundef %1, i64 noundef %spec.store.select, i64 noundef %3) #20
  %13 = icmp slt i64 %12, 0
  br i1 %13, label %8, label %._crit_edge

._crit_edge:                                      ; preds = %11, %8, %4
  %.lcssa = phi i64 [ %5, %4 ], [ %9, %8 ], [ %12, %11 ]
  ret i64 %.lcssa
}